; Function Attrs: nofree norecurse nosync nounwind memory(argmem: readwrite) uwtable
define internal void @Float32_To_UInt8_Clip(ptr noundef writeonly captures(none) %0, i32 noundef %1, ptr noundef readonly captures(none) %2, i32 noundef %3, i32 noundef %4, ptr readnone captures(none) %5) #2 {
  %.not14 = icmp eq i32 %4, 0
  br i1 %.not14, label %._crit_edge, label %.lr.ph

.lr.ph:                                           ; preds = %6
  %7 = sext i32 %3 to i64
  %8 = sext i32 %1 to i64
  br label %9

9:                                                ; preds = %.lr.ph, %9
  %.017 = phi i32 [ %4, %.lr.ph ], [ %10, %9 ]
  %.01216 = phi ptr [ %0, %.lr.ph ], [ %16, %9 ]
  %.01315 = phi ptr [ %2, %.lr.ph ], [ %15, %9 ]
  %10 = add i32 %.017, -1
  %11 = load float, ptr %.01315, align 4, !tbaa !68
  %12 = fmul float %11, 1.270000e+02
  %13 = tail call i8 @llvm.fptosi.sat.i8.f32(float %12)
  %14 = xor i8 %13, -128
  store i8 %14, ptr %.01216, align 1, !tbaa !76
  %15 = getelementptr inbounds float, ptr %.01315, i64 %7
  %16 = getelementptr inbounds i8, ptr %.01216, i64 %8
  %.not = icmp eq i32 %10, 0
  br i1 %.not, label %._crit_edge, label %9, !llvm.loop !93

._crit_edge:                                      ; preds = %9, %6
  ret void
}